(dp0
S'B1X3'
p1
(lp2
sS'B1Y1'
p3
(lp4
S'root://eoscms//eos/cms/store/group/comm_luminosity/PCC/ForLumiComputation/2018/NormalFills/6847_And_6854_And_6868/ZeroBias1/crab_CMSSW_10_1_7_ZeroBias1_splitPerBXTrue/180817_121608/0000//pcc_Data_PixVtx_Event_90X_11.root'
p5
aS'root://eoscms//eos/cms/store/group/comm_luminosity/PCC/ForLumiComputation/2018/NormalFills/6847_And_6854_And_6868/ZeroBias1/crab_CMSSW_10_1_7_ZeroBias1_splitPerBXTrue/180817_121608/0000//pcc_Data_PixVtx_Event_90X_2.root'
p6
aS'root://eoscms//eos/cms/store/group/comm_luminosity/PCC/ForLumiComputation/2018/NormalFills/6847_And_6854_And_6868/ZeroBias1/crab_CMSSW_10_1_7_ZeroBias1_splitPerBXTrue/180817_121608/0000//pcc_Data_PixVtx_Event_90X_4.root'
p7
aS'root://eoscms//eos/cms/store/group/comm_luminosity/PCC/ForLumiComputation/2018/NormalFills/6847_And_6854_And_6868/ZeroBias1/crab_CMSSW_10_1_7_ZeroBias1_splitPerBXTrue/180817_121608/0000//pcc_Data_PixVtx_Event_90X_6.root'
p8
aS'root://eoscms//eos/cms/store/group/comm_luminosity/PCC/ForLumiComputation/2018/NormalFills/6847_And_6854_And_6868/ZeroBias2/crab_CMSSW_10_1_7_ZeroBias2_splitPerBXTrue/180817_121630/0000//pcc_Data_PixVtx_Event_90X_10.root'
p9
aS'root://eoscms//eos/cms/store/group/comm_luminosity/PCC/ForLumiComputation/2018/NormalFills/6847_And_6854_And_6868/ZeroBias2/crab_CMSSW_10_1_7_ZeroBias2_splitPerBXTrue/180817_121630/0000//pcc_Data_PixVtx_Event_90X_15.root'
p10
aS'root://eoscms//eos/cms/store/group/comm_luminosity/PCC/ForLumiComputation/2018/NormalFills/6847_And_6854_And_6868/ZeroBias2/crab_CMSSW_10_1_7_ZeroBias2_splitPerBXTrue/180817_121630/0000//pcc_Data_PixVtx_Event_90X_17.root'
p11
aS'root://eoscms//eos/cms/store/group/comm_luminosity/PCC/ForLumiComputation/2018/NormalFills/6847_And_6854_And_6868/ZeroBias2/crab_CMSSW_10_1_7_ZeroBias2_splitPerBXTrue/180817_121630/0000//pcc_Data_PixVtx_Event_90X_19.root'
p12
aS'root://eoscms//eos/cms/store/group/comm_luminosity/PCC/ForLumiComputation/2018/NormalFills/6847_And_6854_And_6868/ZeroBias2/crab_CMSSW_10_1_7_ZeroBias2_splitPerBXTrue/180817_121630/0000//pcc_Data_PixVtx_Event_90X_2.root'
p13
aS'root://eoscms//eos/cms/store/group/comm_luminosity/PCC/ForLumiComputation/2018/NormalFills/6847_And_6854_And_6868/ZeroBias2/crab_CMSSW_10_1_7_ZeroBias2_splitPerBXTrue/180817_121630/0000//pcc_Data_PixVtx_Event_90X_3.root'
p14
aS'root://eoscms//eos/cms/store/group/comm_luminosity/PCC/ForLumiComputation/2018/NormalFills/6847_And_6854_And_6868/ZeroBias2/crab_CMSSW_10_1_7_ZeroBias2_splitPerBXTrue/180817_121630/0000//pcc_Data_PixVtx_Event_90X_7.root'
p15
aS'root://eoscms//eos/cms/store/group/comm_luminosity/PCC/ForLumiComputation/2018/NormalFills/6847_And_6854_And_6868/ZeroBias3/crab_CMSSW_10_1_7_ZeroBias3_splitPerBXTrue/180817_121652/0000//pcc_Data_PixVtx_Event_90X_11.root'
p16
aS'root://eoscms//eos/cms/store/group/comm_luminosity/PCC/ForLumiComputation/2018/NormalFills/6847_And_6854_And_6868/ZeroBias3/crab_CMSSW_10_1_7_ZeroBias3_splitPerBXTrue/180817_121652/0000//pcc_Data_PixVtx_Event_90X_12.root'
p17
aS'root://eoscms//eos/cms/store/group/comm_luminosity/PCC/ForLumiComputation/2018/NormalFills/6847_And_6854_And_6868/ZeroBias3/crab_CMSSW_10_1_7_ZeroBias3_splitPerBXTrue/180817_121652/0000//pcc_Data_PixVtx_Event_90X_6.root'
p18
aS'root://eoscms//eos/cms/store/group/comm_luminosity/PCC/ForLumiComputation/2018/NormalFills/6847_And_6854_And_6868/ZeroBias4/crab_CMSSW_10_1_7_ZeroBias4_splitPerBXTrue/180817_121713/0000//pcc_Data_PixVtx_Event_90X_3.root'
p19
aS'root://eoscms//eos/cms/store/group/comm_luminosity/PCC/ForLumiComputation/2018/NormalFills/6847_And_6854_And_6868/ZeroBias4/crab_CMSSW_10_1_7_ZeroBias4_splitPerBXTrue/180817_121713/0000//pcc_Data_PixVtx_Event_90X_4.root'
p20
aS'root://eoscms//eos/cms/store/group/comm_luminosity/PCC/ForLumiComputation/2018/NormalFills/6847_And_6854_And_6868/ZeroBias4/crab_CMSSW_10_1_7_ZeroBias4_splitPerBXTrue/180817_121713/0000//pcc_Data_PixVtx_Event_90X_5.root'
p21
aS'root://eoscms//eos/cms/store/group/comm_luminosity/PCC/ForLumiComputation/2018/NormalFills/6847_And_6854_And_6868/ZeroBias4/crab_CMSSW_10_1_7_ZeroBias4_splitPerBXTrue/180817_121713/0000//pcc_Data_PixVtx_Event_90X_7.root'
p22
aS'root://eoscms//eos/cms/store/group/comm_luminosity/PCC/ForLumiComputation/2018/NormalFills/6847_And_6854_And_6868/ZeroBias4/crab_CMSSW_10_1_7_ZeroBias4_splitPerBXTrue/180817_121713/0000//pcc_Data_PixVtx_Event_90X_9.root'
p23
aS'root://eoscms//eos/cms/store/group/comm_luminosity/PCC/ForLumiComputation/2018/NormalFills/6847_And_6854_And_6868/ZeroBias5/crab_CMSSW_10_1_7_ZeroBias5_splitPerBXTrue/180914_182538/0000//pcc_Data_PixVtx_Event_90X_1.root'
p24
aS'root://eoscms//eos/cms/store/group/comm_luminosity/PCC/ForLumiComputation/2018/NormalFills/6847_And_6854_And_6868/ZeroBias5/crab_CMSSW_10_1_7_ZeroBias5_splitPerBXTrue/180914_182538/0000//pcc_Data_PixVtx_Event_90X_3.root'
p25
aS'root://eoscms//eos/cms/store/group/comm_luminosity/PCC/ForLumiComputation/2018/NormalFills/6847_And_6854_And_6868/ZeroBias5/crab_CMSSW_10_1_7_ZeroBias5_splitPerBXTrue/180914_182538/0000//pcc_Data_PixVtx_Event_90X_4.root'
p26
aS'root://eoscms//eos/cms/store/group/phys_top/gkrintir/ForLumiComputation/2018/NormalFills/6847_And_6854_And_6868/ZeroBias6/crab_CMSSW_10_1_7_ZeroBias6_splitPerBXTrue/180818_163932/0000//pcc_Data_PixVtx_Event_90X_1.root'
p27
aS'root://eoscms//eos/cms/store/group/phys_top/gkrintir/ForLumiComputation/2018/NormalFills/6847_And_6854_And_6868/ZeroBias6/crab_CMSSW_10_1_7_ZeroBias6_splitPerBXTrue/180818_163932/0000//pcc_Data_PixVtx_Event_90X_12.root'
p28
aS'root://eoscms//eos/cms/store/group/phys_top/gkrintir/ForLumiComputation/2018/NormalFills/6847_And_6854_And_6868/ZeroBias6/crab_CMSSW_10_1_7_ZeroBias6_splitPerBXTrue/180818_163932/0000//pcc_Data_PixVtx_Event_90X_13.root'
p29
aS'root://eoscms//eos/cms/store/group/phys_top/gkrintir/ForLumiComputation/2018/NormalFills/6847_And_6854_And_6868/ZeroBias6/crab_CMSSW_10_1_7_ZeroBias6_splitPerBXTrue/180818_163932/0000//pcc_Data_PixVtx_Event_90X_4.root'
p30
aS'root://eoscms//eos/cms/store/group/phys_top/gkrintir/ForLumiComputation/2018/NormalFills/6847_And_6854_And_6868/ZeroBias6/crab_CMSSW_10_1_7_ZeroBias6_splitPerBXTrue/180818_163932/0000//pcc_Data_PixVtx_Event_90X_5.root'
p31
aS'root://eoscms//eos/cms/store/group/phys_top/gkrintir/ForLumiComputation/2018/NormalFills/6847_And_6854_And_6868/ZeroBias6/crab_CMSSW_10_1_7_ZeroBias6_splitPerBXTrue/180818_163932/0000//pcc_Data_PixVtx_Event_90X_6.root'
p32
aS'root://eoscms//eos/cms/store/group/comm_luminosity/PCC/ForLumiComputation/2018/NormalFills/6847_And_6854_And_6868/ZeroBias7/crab_CMSSW_10_1_7_ZeroBias7_splitPerBXTrue/180817_121826/0000//pcc_Data_PixVtx_Event_90X_3.root'
p33
aS'root://eoscms//eos/cms/store/group/comm_luminosity/PCC/ForLumiComputation/2018/NormalFills/6847_And_6854_And_6868/ZeroBias7/crab_CMSSW_10_1_7_ZeroBias7_splitPerBXTrue/180817_121826/0000//pcc_Data_PixVtx_Event_90X_7.root'
p34
aS'root://eoscms//eos/cms/store/group/comm_luminosity/PCC/ForLumiComputation/2018/NormalFills/6847_And_6854_And_6868/ZeroBias8/crab_CMSSW_10_1_7_ZeroBias8_splitPerBXTrue/180817_121848/0000//pcc_Data_PixVtx_Event_90X_6.root'
p35
aS'root://eoscms//eos/cms/store/group/comm_luminosity/PCC/ForLumiComputation/2018/NormalFills/6847_And_6854_And_6868/ZeroBias8/crab_CMSSW_10_1_7_ZeroBias8_splitPerBXTrue/180817_121848/0000//pcc_Data_PixVtx_Event_90X_9.root'
p36
asS'B1Y2'
p37
(lp38
S'root://eoscms//eos/cms/store/group/comm_luminosity/PCC/ForLumiComputation/2018/NormalFills/6847_And_6854_And_6868/ZeroBias1/crab_CMSSW_10_1_7_ZeroBias1_splitPerBXTrue/180817_121608/0000//pcc_Data_PixVtx_Event_90X_3.root'
p39
aS'root://eoscms//eos/cms/store/group/comm_luminosity/PCC/ForLumiComputation/2018/NormalFills/6847_And_6854_And_6868/ZeroBias1/crab_CMSSW_10_1_7_ZeroBias1_splitPerBXTrue/180817_121608/0000//pcc_Data_PixVtx_Event_90X_8.root'
p40
aS'root://eoscms//eos/cms/store/group/comm_luminosity/PCC/ForLumiComputation/2018/NormalFills/6847_And_6854_And_6868/ZeroBias3/crab_CMSSW_10_1_7_ZeroBias3_splitPerBXTrue/180817_121652/0000//pcc_Data_PixVtx_Event_90X_8.root'
p41
aS'root://eoscms//eos/cms/store/group/comm_luminosity/PCC/ForLumiComputation/2018/NormalFills/6847_And_6854_And_6868/ZeroBias3/crab_CMSSW_10_1_7_ZeroBias3_splitPerBXTrue/180817_121652/0000//pcc_Data_PixVtx_Event_90X_9.root'
p42
aS'root://eoscms//eos/cms/store/group/comm_luminosity/PCC/ForLumiComputation/2018/NormalFills/6847_And_6854_And_6868/ZeroBias4/crab_CMSSW_10_1_7_ZeroBias4_splitPerBXTrue/180817_121713/0000//pcc_Data_PixVtx_Event_90X_1.root'
p43
aS'root://eoscms//eos/cms/store/group/comm_luminosity/PCC/ForLumiComputation/2018/NormalFills/6847_And_6854_And_6868/ZeroBias5/crab_CMSSW_10_1_7_ZeroBias5_splitPerBXTrue/180914_182538/0000//pcc_Data_PixVtx_Event_90X_2.root'
p44
aS'root://eoscms//eos/cms/store/group/phys_top/gkrintir/ForLumiComputation/2018/NormalFills/6847_And_6854_And_6868/ZeroBias6/crab_CMSSW_10_1_7_ZeroBias6_splitPerBXTrue/180818_163932/0000//pcc_Data_PixVtx_Event_90X_10.root'
p45
aS'root://eoscms//eos/cms/store/group/phys_top/gkrintir/ForLumiComputation/2018/NormalFills/6847_And_6854_And_6868/ZeroBias6/crab_CMSSW_10_1_7_ZeroBias6_splitPerBXTrue/180818_163932/0000//pcc_Data_PixVtx_Event_90X_14.root'
p46
aS'root://eoscms//eos/cms/store/group/phys_top/gkrintir/ForLumiComputation/2018/NormalFills/6847_And_6854_And_6868/ZeroBias6/crab_CMSSW_10_1_7_ZeroBias6_splitPerBXTrue/180818_163932/0000//pcc_Data_PixVtx_Event_90X_16.root'
p47
aS'root://eoscms//eos/cms/store/group/phys_top/gkrintir/ForLumiComputation/2018/NormalFills/6847_And_6854_And_6868/ZeroBias6/crab_CMSSW_10_1_7_ZeroBias6_splitPerBXTrue/180818_163932/0000//pcc_Data_PixVtx_Event_90X_3.root'
p48
aS'root://eoscms//eos/cms/store/group/comm_luminosity/PCC/ForLumiComputation/2018/NormalFills/6847_And_6854_And_6868/ZeroBias7/crab_CMSSW_10_1_7_ZeroBias7_splitPerBXTrue/180817_121826/0000//pcc_Data_PixVtx_Event_90X_4.root'
p49
aS'root://eoscms//eos/cms/store/group/comm_luminosity/PCC/ForLumiComputation/2018/NormalFills/6847_And_6854_And_6868/ZeroBias7/crab_CMSSW_10_1_7_ZeroBias7_splitPerBXTrue/180817_121826/0000//pcc_Data_PixVtx_Event_90X_5.root'
p50
aS'root://eoscms//eos/cms/store/group/comm_luminosity/PCC/ForLumiComputation/2018/NormalFills/6847_And_6854_And_6868/ZeroBias8/crab_CMSSW_10_1_7_ZeroBias8_splitPerBXTrue/180817_121848/0000//pcc_Data_PixVtx_Event_90X_8.root'
p51
asS'B1Y3'
p52
(lp53
S'root://eoscms//eos/cms/store/group/phys_top/gkrintir/ForLumiComputation/2018/NormalFills/6847_And_6854_And_6868/ZeroBias6/crab_CMSSW_10_1_7_ZeroBias6_splitPerBXTrue/180818_163932/0000//pcc_Data_PixVtx_Event_90X_17.root'
p54
aS'root://eoscms//eos/cms/store/group/comm_luminosity/PCC/ForLumiComputation/2018/NormalFills/6847_And_6854_And_6868/ZeroBias7/crab_CMSSW_10_1_7_ZeroBias7_splitPerBXTrue/180817_121826/0000//pcc_Data_PixVtx_Event_90X_1.root'
p55
aS'root://eoscms//eos/cms/store/group/comm_luminosity/PCC/ForLumiComputation/2018/NormalFills/6847_And_6854_And_6868/ZeroBias7/crab_CMSSW_10_1_7_ZeroBias7_splitPerBXTrue/180817_121826/0000//pcc_Data_PixVtx_Event_90X_2.root'
p56
aS'root://eoscms//eos/cms/store/group/comm_luminosity/PCC/ForLumiComputation/2018/NormalFills/6847_And_6854_And_6868/ZeroBias7/crab_CMSSW_10_1_7_ZeroBias7_splitPerBXTrue/180817_121826/0000//pcc_Data_PixVtx_Event_90X_8.root'
p57
aS'root://eoscms//eos/cms/store/group/comm_luminosity/PCC/ForLumiComputation/2018/NormalFills/6847_And_6854_And_6868/ZeroBias8/crab_CMSSW_10_1_7_ZeroBias8_splitPerBXTrue/180817_121848/0000//pcc_Data_PixVtx_Event_90X_4.root'
p58
asS'B1Y4'
p59
(lp60
S'root://eoscms//eos/cms/store/group/comm_luminosity/PCC/ForLumiComputation/2018/NormalFills/6847_And_6854_And_6868/ZeroBias1/crab_CMSSW_10_1_7_ZeroBias1_splitPerBXTrue/180817_121608/0000//pcc_Data_PixVtx_Event_90X_5.root'
p61
aS'root://eoscms//eos/cms/store/group/comm_luminosity/PCC/ForLumiComputation/2018/NormalFills/6847_And_6854_And_6868/ZeroBias2/crab_CMSSW_10_1_7_ZeroBias2_splitPerBXTrue/180817_121630/0000//pcc_Data_PixVtx_Event_90X_4.root'
p62
aS'root://eoscms//eos/cms/store/group/comm_luminosity/PCC/ForLumiComputation/2018/NormalFills/6847_And_6854_And_6868/ZeroBias2/crab_CMSSW_10_1_7_ZeroBias2_splitPerBXTrue/180817_121630/0000//pcc_Data_PixVtx_Event_90X_9.root'
p63
aS'root://eoscms//eos/cms/store/group/comm_luminosity/PCC/ForLumiComputation/2018/NormalFills/6847_And_6854_And_6868/ZeroBias7/crab_CMSSW_10_1_7_ZeroBias7_splitPerBXTrue/180817_121826/0000//pcc_Data_PixVtx_Event_90X_9.root'
p64
asS'B1Y5'
p65
(lp66
S'root://eoscms//eos/cms/store/group/comm_luminosity/PCC/ForLumiComputation/2018/NormalFills/6847_And_6854_And_6868/ZeroBias2/crab_CMSSW_10_1_7_ZeroBias2_splitPerBXTrue/180817_121630/0000//pcc_Data_PixVtx_Event_90X_5.root'
p67
aS'root://eoscms//eos/cms/store/group/comm_luminosity/PCC/ForLumiComputation/2018/NormalFills/6847_And_6854_And_6868/ZeroBias3/crab_CMSSW_10_1_7_ZeroBias3_splitPerBXTrue/180817_121652/0000//pcc_Data_PixVtx_Event_90X_13.root'
p68
aS'root://eoscms//eos/cms/store/group/comm_luminosity/PCC/ForLumiComputation/2018/NormalFills/6847_And_6854_And_6868/ZeroBias4/crab_CMSSW_10_1_7_ZeroBias4_splitPerBXTrue/180817_121713/0000//pcc_Data_PixVtx_Event_90X_2.root'
p69
aS'root://eoscms//eos/cms/store/group/comm_luminosity/PCC/ForLumiComputation/2018/NormalFills/6847_And_6854_And_6868/ZeroBias4/crab_CMSSW_10_1_7_ZeroBias4_splitPerBXTrue/180817_121713/0000//pcc_Data_PixVtx_Event_90X_6.root'
p70
aS'root://eoscms//eos/cms/store/group/comm_luminosity/PCC/ForLumiComputation/2018/NormalFills/6847_And_6854_And_6868/ZeroBias8/crab_CMSSW_10_1_7_ZeroBias8_splitPerBXTrue/180817_121848/0000//pcc_Data_PixVtx_Event_90X_7.root'
p71
asS'B1X5'
p72
(lp73
S'root://eoscms//eos/cms/store/group/comm_luminosity/PCC/ForLumiComputation/2018/NormalFills/6847_And_6854_And_6868/ZeroBias8/crab_CMSSW_10_1_7_ZeroBias8_splitPerBXTrue/180817_121848/0000//pcc_Data_PixVtx_Event_90X_3.root'
p74
asS'B1X2'
p75
(lp76
sS'B1X4'
p77
(lp78
S'root://eoscms//eos/cms/store/group/comm_luminosity/PCC/ForLumiComputation/2018/NormalFills/6847_And_6854_And_6868/ZeroBias1/crab_CMSSW_10_1_7_ZeroBias1_splitPerBXTrue/180817_121608/0000//pcc_Data_PixVtx_Event_90X_10.root'
p79
aS'root://eoscms//eos/cms/store/group/comm_luminosity/PCC/ForLumiComputation/2018/NormalFills/6847_And_6854_And_6868/ZeroBias1/crab_CMSSW_10_1_7_ZeroBias1_splitPerBXTrue/180817_121608/0000//pcc_Data_PixVtx_Event_90X_7.root'
p80
aS'root://eoscms//eos/cms/store/group/comm_luminosity/PCC/ForLumiComputation/2018/NormalFills/6847_And_6854_And_6868/ZeroBias2/crab_CMSSW_10_1_7_ZeroBias2_splitPerBXTrue/180817_121630/0000//pcc_Data_PixVtx_Event_90X_20.root'
p81
aS'root://eoscms//eos/cms/store/group/comm_luminosity/PCC/ForLumiComputation/2018/NormalFills/6847_And_6854_And_6868/ZeroBias7/crab_CMSSW_10_1_7_ZeroBias7_splitPerBXTrue/180817_121826/0000//pcc_Data_PixVtx_Event_90X_6.root'
p82
asS'B1X1'
p83
(lp84
S'root://eoscms//eos/cms/store/group/comm_luminosity/PCC/ForLumiComputation/2018/NormalFills/6847_And_6854_And_6868/ZeroBias2/crab_CMSSW_10_1_7_ZeroBias2_splitPerBXTrue/180817_121630/0000//pcc_Data_PixVtx_Event_90X_12.root'
p85
aS'root://eoscms//eos/cms/store/group/comm_luminosity/PCC/ForLumiComputation/2018/NormalFills/6847_And_6854_And_6868/ZeroBias3/crab_CMSSW_10_1_7_ZeroBias3_splitPerBXTrue/180817_121652/0000//pcc_Data_PixVtx_Event_90X_10.root'
p86
aS'root://eoscms//eos/cms/store/group/comm_luminosity/PCC/ForLumiComputation/2018/NormalFills/6847_And_6854_And_6868/ZeroBias3/crab_CMSSW_10_1_7_ZeroBias3_splitPerBXTrue/180817_121652/0000//pcc_Data_PixVtx_Event_90X_7.root'
p87
aS'root://eoscms//eos/cms/store/group/phys_top/gkrintir/ForLumiComputation/2018/NormalFills/6847_And_6854_And_6868/ZeroBias6/crab_CMSSW_10_1_7_ZeroBias6_splitPerBXTrue/180818_163932/0000//pcc_Data_PixVtx_Event_90X_2.root'
p88
aS'root://eoscms//eos/cms/store/group/comm_luminosity/PCC/ForLumiComputation/2018/NormalFills/6847_And_6854_And_6868/ZeroBias8/crab_CMSSW_10_1_7_ZeroBias8_splitPerBXTrue/180817_121848/0000//pcc_Data_PixVtx_Event_90X_10.root'
p89
asS'B2X5'
p90
(lp91
S'root://eoscms//eos/cms/store/group/comm_luminosity/PCC/ForLumiComputation/2018/NormalFills/6847_And_6854_And_6868/ZeroBias4/crab_CMSSW_10_1_7_ZeroBias4_splitPerBXTrue/180817_121713/0000//pcc_Data_PixVtx_Event_90X_10.root'
p92
asS'B2X1'
p93
(lp94
sS'B2Y3'
p95
(lp96
sS'B2Y2'
p97
(lp98
S'root://eoscms//eos/cms/store/group/phys_top/gkrintir/ForLumiComputation/2018/NormalFills/6847_And_6854_And_6868/ZeroBias6/crab_CMSSW_10_1_7_ZeroBias6_splitPerBXTrue/180818_163932/0000//pcc_Data_PixVtx_Event_90X_9.root'
p99
aS'root://eoscms//eos/cms/store/group/comm_luminosity/PCC/ForLumiComputation/2018/NormalFills/6847_And_6854_And_6868/ZeroBias7/crab_CMSSW_10_1_7_ZeroBias7_splitPerBXTrue/180817_121826/0000//pcc_Data_PixVtx_Event_90X_11.root'
p100
asS'B2Y1'
p101
(lp102
S'root://eoscms//eos/cms/store/group/comm_luminosity/PCC/ForLumiComputation/2018/NormalFills/6847_And_6854_And_6868/ZeroBias1/crab_CMSSW_10_1_7_ZeroBias1_splitPerBXTrue/180817_121608/0000//pcc_Data_PixVtx_Event_90X_1.root'
p103
aS'root://eoscms//eos/cms/store/group/comm_luminosity/PCC/ForLumiComputation/2018/NormalFills/6847_And_6854_And_6868/ZeroBias2/crab_CMSSW_10_1_7_ZeroBias2_splitPerBXTrue/180817_121630/0000//pcc_Data_PixVtx_Event_90X_13.root'
p104
asS'B2X3'
p105
(lp106
S'root://eoscms//eos/cms/store/group/comm_luminosity/PCC/ForLumiComputation/2018/NormalFills/6847_And_6854_And_6868/ZeroBias7/crab_CMSSW_10_1_7_ZeroBias7_splitPerBXTrue/180817_121826/0000//pcc_Data_PixVtx_Event_90X_12.root'
p107
asS'B2X4'
p108
(lp109
S'root://eoscms//eos/cms/store/group/comm_luminosity/PCC/ForLumiComputation/2018/NormalFills/6847_And_6854_And_6868/ZeroBias4/crab_CMSSW_10_1_7_ZeroBias4_splitPerBXTrue/180817_121713/0000//pcc_Data_PixVtx_Event_90X_8.root'
p110
aS'root://eoscms//eos/cms/store/group/phys_top/gkrintir/ForLumiComputation/2018/NormalFills/6847_And_6854_And_6868/ZeroBias6/crab_CMSSW_10_1_7_ZeroBias6_splitPerBXTrue/180818_163932/0000//pcc_Data_PixVtx_Event_90X_15.root'
p111
aS'root://eoscms//eos/cms/store/group/comm_luminosity/PCC/ForLumiComputation/2018/NormalFills/6847_And_6854_And_6868/ZeroBias8/crab_CMSSW_10_1_7_ZeroBias8_splitPerBXTrue/180817_121848/0000//pcc_Data_PixVtx_Event_90X_1.root'
p112
asS'B2X2'
p113
(lp114
S'root://eoscms//eos/cms/store/group/comm_luminosity/PCC/ForLumiComputation/2018/NormalFills/6847_And_6854_And_6868/ZeroBias5/crab_CMSSW_10_1_7_ZeroBias5_splitPerBXTrue/180914_182538/0000//pcc_Data_PixVtx_Event_90X_5.root'
p115
asS'B2Y5'
p116
(lp117
S'root://eoscms//eos/cms/store/group/comm_luminosity/PCC/ForLumiComputation/2018/NormalFills/6847_And_6854_And_6868/ZeroBias5/crab_CMSSW_10_1_7_ZeroBias5_splitPerBXTrue/180914_182538/0000//pcc_Data_PixVtx_Event_90X_6.root'
p118
aS'root://eoscms//eos/cms/store/group/comm_luminosity/PCC/ForLumiComputation/2018/NormalFills/6847_And_6854_And_6868/ZeroBias8/crab_CMSSW_10_1_7_ZeroBias8_splitPerBXTrue/180817_121848/0000//pcc_Data_PixVtx_Event_90X_5.root'
p119
asS'B2Y4'
p120
(lp121
s.