(dp0
S'B1X3'
p1
(lp2
S'root://eoscms//eos/cms/store/group/phys_top/gkrintir/ForLumiComputation/2018/NormalFills/6847_And_6854_And_6868/ZeroBias1/crab_CMSSW_10_1_7_ZeroBias1_splitPerBXTrue/180817_121608/0000/minituples_supersep//pcc_Data_PixVtx_Event_90X_2__2.root'
p3
aS'root://eoscms//eos/cms/store/group/phys_top/gkrintir/ForLumiComputation/2018/NormalFills/6847_And_6854_And_6868/ZeroBias1/crab_CMSSW_10_1_7_ZeroBias1_splitPerBXTrue/180817_121608/0000/minituples_supersep//pcc_Data_PixVtx_Event_90X_4__4.root'
p4
aS'root://eoscms//eos/cms/store/group/phys_top/gkrintir/ForLumiComputation/2018/NormalFills/6847_And_6854_And_6868/ZeroBias1/crab_CMSSW_10_1_7_ZeroBias1_splitPerBXTrue/180817_121608/0000/minituples_supersep//pcc_Data_PixVtx_Event_90X_5__5.root'
p5
aS'root://eoscms//eos/cms/store/group/phys_top/gkrintir/ForLumiComputation/2018/NormalFills/6847_And_6854_And_6868/ZeroBias1/crab_CMSSW_10_1_7_ZeroBias1_splitPerBXTrue/180817_121608/0000/minituples_supersep//pcc_Data_PixVtx_Event_90X_6__6.root'
p6
aS'root://eoscms//eos/cms/store/group/phys_top/gkrintir/ForLumiComputation/2018/NormalFills/6847_And_6854_And_6868/ZeroBias2/crab_CMSSW_10_1_7_ZeroBias2_splitPerBXTrue/180817_121630/0000/minituples_supersep//pcc_Data_PixVtx_Event_90X_12__12.root'
p7
aS'root://eoscms//eos/cms/store/group/phys_top/gkrintir/ForLumiComputation/2018/NormalFills/6847_And_6854_And_6868/ZeroBias2/crab_CMSSW_10_1_7_ZeroBias2_splitPerBXTrue/180817_121630/0000/minituples_supersep//pcc_Data_PixVtx_Event_90X_19__19.root'
p8
aS'root://eoscms//eos/cms/store/group/phys_top/gkrintir/ForLumiComputation/2018/NormalFills/6847_And_6854_And_6868/ZeroBias3/crab_CMSSW_10_1_7_ZeroBias3_splitPerBXTrue/180817_121652/0000/minituples_supersep//pcc_Data_PixVtx_Event_90X_10__10.root'
p9
aS'root://eoscms//eos/cms/store/group/phys_top/gkrintir/ForLumiComputation/2018/NormalFills/6847_And_6854_And_6868/ZeroBias3/crab_CMSSW_10_1_7_ZeroBias3_splitPerBXTrue/180817_121652/0000/minituples_supersep//pcc_Data_PixVtx_Event_90X_7__7.root'
p10
aS'root://eoscms//eos/cms/store/group/phys_top/gkrintir/ForLumiComputation/2018/NormalFills/6847_And_6854_And_6868/ZeroBias3/crab_CMSSW_10_1_7_ZeroBias3_splitPerBXTrue/180817_121652/0000/minituples_supersep//pcc_Data_PixVtx_Event_90X_8__8.root'
p11
aS'root://eoscms//eos/cms/store/group/phys_top/gkrintir/ForLumiComputation/2018/NormalFills/6847_And_6854_And_6868/ZeroBias3/crab_CMSSW_10_1_7_ZeroBias3_splitPerBXTrue/180817_121652/0000/minituples_supersep//pcc_Data_PixVtx_Event_90X_9__9.root'
p12
aS'root://eoscms//eos/cms/store/group/phys_top/gkrintir/ForLumiComputation/2018/NormalFills/6847_And_6854_And_6868/ZeroBias4/crab_CMSSW_10_1_7_ZeroBias4_splitPerBXTrue/180817_121713/0000/minituples_supersep//pcc_Data_PixVtx_Event_90X_1__1.root'
p13
aS'root://eoscms//eos/cms/store/group/phys_top/gkrintir/ForLumiComputation/2018/NormalFills/6847_And_6854_And_6868/ZeroBias4/crab_CMSSW_10_1_7_ZeroBias4_splitPerBXTrue/180817_121713/0000/minituples_supersep//pcc_Data_PixVtx_Event_90X_3__3.root'
p14
aS'root://eoscms//eos/cms/store/group/phys_top/gkrintir/ForLumiComputation/2018/NormalFills/6847_And_6854_And_6868/ZeroBias4/crab_CMSSW_10_1_7_ZeroBias4_splitPerBXTrue/180817_121713/0000/minituples_supersep//pcc_Data_PixVtx_Event_90X_4__4.root'
p15
aS'root://eoscms//eos/cms/store/group/phys_top/gkrintir/ForLumiComputation/2018/NormalFills/6847_And_6854_And_6868/ZeroBias4/crab_CMSSW_10_1_7_ZeroBias4_splitPerBXTrue/180817_121713/0000/minituples_supersep//pcc_Data_PixVtx_Event_90X_6__6.root'
p16
aS'root://eoscms//eos/cms/store/group/phys_top/gkrintir/ForLumiComputation/2018/NormalFills/6847_And_6854_And_6868/ZeroBias5/crab_CMSSW_10_1_7_ZeroBias5_splitPerBXTrue/180914_182538/0000/minituples_supersep//pcc_Data_PixVtx_Event_90X_1__1.root'
p17
aS'root://eoscms//eos/cms/store/group/phys_top/gkrintir/ForLumiComputation/2018/NormalFills/6847_And_6854_And_6868/ZeroBias5/crab_CMSSW_10_1_7_ZeroBias5_splitPerBXTrue/180914_182538/0000/minituples_supersep//pcc_Data_PixVtx_Event_90X_2__2.root'
p18
aS'root://eoscms//eos/cms/store/group/phys_top/gkrintir/ForLumiComputation/2018/NormalFills/6847_And_6854_And_6868/ZeroBias5/crab_CMSSW_10_1_7_ZeroBias5_splitPerBXTrue/180914_182538/0000/minituples_supersep//pcc_Data_PixVtx_Event_90X_3__3.root'
p19
aS'root://eoscms//eos/cms/store/group/phys_top/gkrintir/ForLumiComputation/2018/NormalFills/6847_And_6854_And_6868/ZeroBias5/crab_CMSSW_10_1_7_ZeroBias5_splitPerBXTrue/180914_182538/0000/minituples_supersep//pcc_Data_PixVtx_Event_90X_4__4.root'
p20
aS'root://eoscms//eos/cms/store/group/phys_top/gkrintir/ForLumiComputation/2018/NormalFills/6847_And_6854_And_6868/ZeroBias6/crab_CMSSW_10_1_7_ZeroBias6_splitPerBXTrue/180818_163932/0000/minituples_supersep//pcc_Data_PixVtx_Event_90X_10__10.root'
p21
aS'root://eoscms//eos/cms/store/group/phys_top/gkrintir/ForLumiComputation/2018/NormalFills/6847_And_6854_And_6868/ZeroBias6/crab_CMSSW_10_1_7_ZeroBias6_splitPerBXTrue/180818_163932/0000/minituples_supersep//pcc_Data_PixVtx_Event_90X_12__12.root'
p22
aS'root://eoscms//eos/cms/store/group/phys_top/gkrintir/ForLumiComputation/2018/NormalFills/6847_And_6854_And_6868/ZeroBias6/crab_CMSSW_10_1_7_ZeroBias6_splitPerBXTrue/180818_163932/0000/minituples_supersep//pcc_Data_PixVtx_Event_90X_1__1.root'
p23
aS'root://eoscms//eos/cms/store/group/phys_top/gkrintir/ForLumiComputation/2018/NormalFills/6847_And_6854_And_6868/ZeroBias6/crab_CMSSW_10_1_7_ZeroBias6_splitPerBXTrue/180818_163932/0000/minituples_supersep//pcc_Data_PixVtx_Event_90X_3__3.root'
p24
aS'root://eoscms//eos/cms/store/group/phys_top/gkrintir/ForLumiComputation/2018/NormalFills/6847_And_6854_And_6868/ZeroBias6/crab_CMSSW_10_1_7_ZeroBias6_splitPerBXTrue/180818_163932/0000/minituples_supersep//pcc_Data_PixVtx_Event_90X_4__4.root'
p25
aS'root://eoscms//eos/cms/store/group/phys_top/gkrintir/ForLumiComputation/2018/NormalFills/6847_And_6854_And_6868/ZeroBias6/crab_CMSSW_10_1_7_ZeroBias6_splitPerBXTrue/180818_163932/0000/minituples_supersep//pcc_Data_PixVtx_Event_90X_5__5.root'
p26
aS'root://eoscms//eos/cms/store/group/phys_top/gkrintir/ForLumiComputation/2018/NormalFills/6847_And_6854_And_6868/ZeroBias7/crab_CMSSW_10_1_7_ZeroBias7_splitPerBXTrue/180817_121826/0000/minituples_supersep//pcc_Data_PixVtx_Event_90X_2__2.root'
p27
aS'root://eoscms//eos/cms/store/group/phys_top/gkrintir/ForLumiComputation/2018/NormalFills/6847_And_6854_And_6868/ZeroBias7/crab_CMSSW_10_1_7_ZeroBias7_splitPerBXTrue/180817_121826/0000/minituples_supersep//pcc_Data_PixVtx_Event_90X_3__3.root'
p28
aS'root://eoscms//eos/cms/store/group/phys_top/gkrintir/ForLumiComputation/2018/NormalFills/6847_And_6854_And_6868/ZeroBias7/crab_CMSSW_10_1_7_ZeroBias7_splitPerBXTrue/180817_121826/0000/minituples_supersep//pcc_Data_PixVtx_Event_90X_4__4.root'
p29
aS'root://eoscms//eos/cms/store/group/phys_top/gkrintir/ForLumiComputation/2018/NormalFills/6847_And_6854_And_6868/ZeroBias7/crab_CMSSW_10_1_7_ZeroBias7_splitPerBXTrue/180817_121826/0000/minituples_supersep//pcc_Data_PixVtx_Event_90X_5__5.root'
p30
aS'root://eoscms//eos/cms/store/group/phys_top/gkrintir/ForLumiComputation/2018/NormalFills/6847_And_6854_And_6868/ZeroBias8/crab_CMSSW_10_1_7_ZeroBias8_splitPerBXTrue/180817_121848/0000/minituples_supersep//pcc_Data_PixVtx_Event_90X_6__6.root'
p31
asS'B1Y1'
p32
(lp33
g3
ag4
ag6
aS'root://eoscms//eos/cms/store/group/phys_top/gkrintir/ForLumiComputation/2018/NormalFills/6847_And_6854_And_6868/ZeroBias2/crab_CMSSW_10_1_7_ZeroBias2_splitPerBXTrue/180817_121630/0000/minituples_supersep//pcc_Data_PixVtx_Event_90X_10__10.root'
p34
aS'root://eoscms//eos/cms/store/group/phys_top/gkrintir/ForLumiComputation/2018/NormalFills/6847_And_6854_And_6868/ZeroBias2/crab_CMSSW_10_1_7_ZeroBias2_splitPerBXTrue/180817_121630/0000/minituples_supersep//pcc_Data_PixVtx_Event_90X_15__15.root'
p35
aS'root://eoscms//eos/cms/store/group/phys_top/gkrintir/ForLumiComputation/2018/NormalFills/6847_And_6854_And_6868/ZeroBias2/crab_CMSSW_10_1_7_ZeroBias2_splitPerBXTrue/180817_121630/0000/minituples_supersep//pcc_Data_PixVtx_Event_90X_17__17.root'
p36
ag8
aS'root://eoscms//eos/cms/store/group/phys_top/gkrintir/ForLumiComputation/2018/NormalFills/6847_And_6854_And_6868/ZeroBias2/crab_CMSSW_10_1_7_ZeroBias2_splitPerBXTrue/180817_121630/0000/minituples_supersep//pcc_Data_PixVtx_Event_90X_2__2.root'
p37
aS'root://eoscms//eos/cms/store/group/phys_top/gkrintir/ForLumiComputation/2018/NormalFills/6847_And_6854_And_6868/ZeroBias2/crab_CMSSW_10_1_7_ZeroBias2_splitPerBXTrue/180817_121630/0000/minituples_supersep//pcc_Data_PixVtx_Event_90X_3__3.root'
p38
aS'root://eoscms//eos/cms/store/group/phys_top/gkrintir/ForLumiComputation/2018/NormalFills/6847_And_6854_And_6868/ZeroBias2/crab_CMSSW_10_1_7_ZeroBias2_splitPerBXTrue/180817_121630/0000/minituples_supersep//pcc_Data_PixVtx_Event_90X_7__7.root'
p39
aS'root://eoscms//eos/cms/store/group/phys_top/gkrintir/ForLumiComputation/2018/NormalFills/6847_And_6854_And_6868/ZeroBias3/crab_CMSSW_10_1_7_ZeroBias3_splitPerBXTrue/180817_121652/0000/minituples_supersep//pcc_Data_PixVtx_Event_90X_11__11.root'
p40
aS'root://eoscms//eos/cms/store/group/phys_top/gkrintir/ForLumiComputation/2018/NormalFills/6847_And_6854_And_6868/ZeroBias3/crab_CMSSW_10_1_7_ZeroBias3_splitPerBXTrue/180817_121652/0000/minituples_supersep//pcc_Data_PixVtx_Event_90X_12__12.root'
p41
aS'root://eoscms//eos/cms/store/group/phys_top/gkrintir/ForLumiComputation/2018/NormalFills/6847_And_6854_And_6868/ZeroBias3/crab_CMSSW_10_1_7_ZeroBias3_splitPerBXTrue/180817_121652/0000/minituples_supersep//pcc_Data_PixVtx_Event_90X_6__6.root'
p42
ag14
ag15
aS'root://eoscms//eos/cms/store/group/phys_top/gkrintir/ForLumiComputation/2018/NormalFills/6847_And_6854_And_6868/ZeroBias4/crab_CMSSW_10_1_7_ZeroBias4_splitPerBXTrue/180817_121713/0000/minituples_supersep//pcc_Data_PixVtx_Event_90X_5__5.root'
p43
aS'root://eoscms//eos/cms/store/group/phys_top/gkrintir/ForLumiComputation/2018/NormalFills/6847_And_6854_And_6868/ZeroBias4/crab_CMSSW_10_1_7_ZeroBias4_splitPerBXTrue/180817_121713/0000/minituples_supersep//pcc_Data_PixVtx_Event_90X_7__7.root'
p44
aS'root://eoscms//eos/cms/store/group/phys_top/gkrintir/ForLumiComputation/2018/NormalFills/6847_And_6854_And_6868/ZeroBias4/crab_CMSSW_10_1_7_ZeroBias4_splitPerBXTrue/180817_121713/0000/minituples_supersep//pcc_Data_PixVtx_Event_90X_9__9.root'
p45
ag17
ag19
ag20
ag22
aS'root://eoscms//eos/cms/store/group/phys_top/gkrintir/ForLumiComputation/2018/NormalFills/6847_And_6854_And_6868/ZeroBias6/crab_CMSSW_10_1_7_ZeroBias6_splitPerBXTrue/180818_163932/0000/minituples_supersep//pcc_Data_PixVtx_Event_90X_13__13.root'
p46
ag23
ag25
ag26
aS'root://eoscms//eos/cms/store/group/phys_top/gkrintir/ForLumiComputation/2018/NormalFills/6847_And_6854_And_6868/ZeroBias6/crab_CMSSW_10_1_7_ZeroBias6_splitPerBXTrue/180818_163932/0000/minituples_supersep//pcc_Data_PixVtx_Event_90X_6__6.root'
p47
ag28
aS'root://eoscms//eos/cms/store/group/phys_top/gkrintir/ForLumiComputation/2018/NormalFills/6847_And_6854_And_6868/ZeroBias7/crab_CMSSW_10_1_7_ZeroBias7_splitPerBXTrue/180817_121826/0000/minituples_supersep//pcc_Data_PixVtx_Event_90X_7__7.root'
p48
ag31
aS'root://eoscms//eos/cms/store/group/phys_top/gkrintir/ForLumiComputation/2018/NormalFills/6847_And_6854_And_6868/ZeroBias8/crab_CMSSW_10_1_7_ZeroBias8_splitPerBXTrue/180817_121848/0000/minituples_supersep//pcc_Data_PixVtx_Event_90X_9__9.root'
p49
asS'B1Y2'
p50
(lp51
g3
aS'root://eoscms//eos/cms/store/group/phys_top/gkrintir/ForLumiComputation/2018/NormalFills/6847_And_6854_And_6868/ZeroBias1/crab_CMSSW_10_1_7_ZeroBias1_splitPerBXTrue/180817_121608/0000/minituples_supersep//pcc_Data_PixVtx_Event_90X_3__3.root'
p52
aS'root://eoscms//eos/cms/store/group/phys_top/gkrintir/ForLumiComputation/2018/NormalFills/6847_And_6854_And_6868/ZeroBias1/crab_CMSSW_10_1_7_ZeroBias1_splitPerBXTrue/180817_121608/0000/minituples_supersep//pcc_Data_PixVtx_Event_90X_8__8.root'
p53
ag35
ag36
ag8
ag37
ag40
ag41
ag11
ag12
ag13
ag14
ag15
ag44
ag45
ag17
ag18
ag20
ag21
ag46
aS'root://eoscms//eos/cms/store/group/phys_top/gkrintir/ForLumiComputation/2018/NormalFills/6847_And_6854_And_6868/ZeroBias6/crab_CMSSW_10_1_7_ZeroBias6_splitPerBXTrue/180818_163932/0000/minituples_supersep//pcc_Data_PixVtx_Event_90X_14__14.root'
p54
aS'root://eoscms//eos/cms/store/group/phys_top/gkrintir/ForLumiComputation/2018/NormalFills/6847_And_6854_And_6868/ZeroBias6/crab_CMSSW_10_1_7_ZeroBias6_splitPerBXTrue/180818_163932/0000/minituples_supersep//pcc_Data_PixVtx_Event_90X_16__16.root'
p55
ag24
ag25
ag47
ag28
ag29
ag30
ag31
aS'root://eoscms//eos/cms/store/group/phys_top/gkrintir/ForLumiComputation/2018/NormalFills/6847_And_6854_And_6868/ZeroBias8/crab_CMSSW_10_1_7_ZeroBias8_splitPerBXTrue/180817_121848/0000/minituples_supersep//pcc_Data_PixVtx_Event_90X_8__8.root'
p56
ag49
asS'B1Y3'
p57
(lp58
g3
ag52
ag35
ag36
ag8
ag40
ag41
ag42
ag11
ag13
ag14
ag43
ag44
ag45
ag17
ag18
ag19
ag20
ag46
aS'root://eoscms//eos/cms/store/group/phys_top/gkrintir/ForLumiComputation/2018/NormalFills/6847_And_6854_And_6868/ZeroBias6/crab_CMSSW_10_1_7_ZeroBias6_splitPerBXTrue/180818_163932/0000/minituples_supersep//pcc_Data_PixVtx_Event_90X_17__17.root'
p59
ag23
ag24
ag26
aS'root://eoscms//eos/cms/store/group/phys_top/gkrintir/ForLumiComputation/2018/NormalFills/6847_And_6854_And_6868/ZeroBias7/crab_CMSSW_10_1_7_ZeroBias7_splitPerBXTrue/180817_121826/0000/minituples_supersep//pcc_Data_PixVtx_Event_90X_1__1.root'
p60
ag27
ag28
ag29
ag30
aS'root://eoscms//eos/cms/store/group/phys_top/gkrintir/ForLumiComputation/2018/NormalFills/6847_And_6854_And_6868/ZeroBias7/crab_CMSSW_10_1_7_ZeroBias7_splitPerBXTrue/180817_121826/0000/minituples_supersep//pcc_Data_PixVtx_Event_90X_8__8.root'
p61
aS'root://eoscms//eos/cms/store/group/phys_top/gkrintir/ForLumiComputation/2018/NormalFills/6847_And_6854_And_6868/ZeroBias8/crab_CMSSW_10_1_7_ZeroBias8_splitPerBXTrue/180817_121848/0000/minituples_supersep//pcc_Data_PixVtx_Event_90X_4__4.root'
p62
ag31
ag56
ag49
asS'B1Y4'
p63
(lp64
g3
ag52
ag4
ag5
ag8
aS'root://eoscms//eos/cms/store/group/phys_top/gkrintir/ForLumiComputation/2018/NormalFills/6847_And_6854_And_6868/ZeroBias2/crab_CMSSW_10_1_7_ZeroBias2_splitPerBXTrue/180817_121630/0000/minituples_supersep//pcc_Data_PixVtx_Event_90X_4__4.root'
p65
aS'root://eoscms//eos/cms/store/group/phys_top/gkrintir/ForLumiComputation/2018/NormalFills/6847_And_6854_And_6868/ZeroBias2/crab_CMSSW_10_1_7_ZeroBias2_splitPerBXTrue/180817_121630/0000/minituples_supersep//pcc_Data_PixVtx_Event_90X_9__9.root'
p66
ag40
ag41
ag12
ag13
ag44
ag17
ag18
ag19
ag20
ag55
ag23
ag24
ag27
ag28
ag29
ag30
aS'root://eoscms//eos/cms/store/group/phys_top/gkrintir/ForLumiComputation/2018/NormalFills/6847_And_6854_And_6868/ZeroBias7/crab_CMSSW_10_1_7_ZeroBias7_splitPerBXTrue/180817_121826/0000/minituples_supersep//pcc_Data_PixVtx_Event_90X_9__9.root'
p67
ag31
ag49
asS'B1Y5'
p68
(lp69
g3
ag52
ag8
ag37
aS'root://eoscms//eos/cms/store/group/phys_top/gkrintir/ForLumiComputation/2018/NormalFills/6847_And_6854_And_6868/ZeroBias2/crab_CMSSW_10_1_7_ZeroBias2_splitPerBXTrue/180817_121630/0000/minituples_supersep//pcc_Data_PixVtx_Event_90X_5__5.root'
p70
ag39
ag40
ag41
aS'root://eoscms//eos/cms/store/group/phys_top/gkrintir/ForLumiComputation/2018/NormalFills/6847_And_6854_And_6868/ZeroBias3/crab_CMSSW_10_1_7_ZeroBias3_splitPerBXTrue/180817_121652/0000/minituples_supersep//pcc_Data_PixVtx_Event_90X_13__13.root'
p71
ag11
ag12
ag13
aS'root://eoscms//eos/cms/store/group/phys_top/gkrintir/ForLumiComputation/2018/NormalFills/6847_And_6854_And_6868/ZeroBias4/crab_CMSSW_10_1_7_ZeroBias4_splitPerBXTrue/180817_121713/0000/minituples_supersep//pcc_Data_PixVtx_Event_90X_2__2.root'
p72
ag14
ag16
ag44
ag17
ag19
ag20
ag23
ag24
ag27
ag28
ag29
ag30
ag62
ag31
aS'root://eoscms//eos/cms/store/group/phys_top/gkrintir/ForLumiComputation/2018/NormalFills/6847_And_6854_And_6868/ZeroBias8/crab_CMSSW_10_1_7_ZeroBias8_splitPerBXTrue/180817_121848/0000/minituples_supersep//pcc_Data_PixVtx_Event_90X_7__7.root'
p73
ag49
asS'B1X5'
p74
(lp75
g3
ag4
ag5
aS'root://eoscms//eos/cms/store/group/phys_top/gkrintir/ForLumiComputation/2018/NormalFills/6847_And_6854_And_6868/ZeroBias1/crab_CMSSW_10_1_7_ZeroBias1_splitPerBXTrue/180817_121608/0000/minituples_supersep//pcc_Data_PixVtx_Event_90X_7__7.root'
p76
ag7
ag8
ag38
ag9
ag40
ag11
ag72
ag14
ag15
ag45
ag18
ag19
ag46
aS'root://eoscms//eos/cms/store/group/phys_top/gkrintir/ForLumiComputation/2018/NormalFills/6847_And_6854_And_6868/ZeroBias6/crab_CMSSW_10_1_7_ZeroBias6_splitPerBXTrue/180818_163932/0000/minituples_supersep//pcc_Data_PixVtx_Event_90X_2__2.root'
p77
ag24
ag25
ag26
ag29
aS'root://eoscms//eos/cms/store/group/phys_top/gkrintir/ForLumiComputation/2018/NormalFills/6847_And_6854_And_6868/ZeroBias7/crab_CMSSW_10_1_7_ZeroBias7_splitPerBXTrue/180817_121826/0000/minituples_supersep//pcc_Data_PixVtx_Event_90X_6__6.root'
p78
aS'root://eoscms//eos/cms/store/group/phys_top/gkrintir/ForLumiComputation/2018/NormalFills/6847_And_6854_And_6868/ZeroBias8/crab_CMSSW_10_1_7_ZeroBias8_splitPerBXTrue/180817_121848/0000/minituples_supersep//pcc_Data_PixVtx_Event_90X_10__10.root'
p79
aS'root://eoscms//eos/cms/store/group/phys_top/gkrintir/ForLumiComputation/2018/NormalFills/6847_And_6854_And_6868/ZeroBias8/crab_CMSSW_10_1_7_ZeroBias8_splitPerBXTrue/180817_121848/0000/minituples_supersep//pcc_Data_PixVtx_Event_90X_3__3.root'
p80
ag62
ag31
ag73
ag49
asS'B1X2'
p81
(lp82
g52
ag4
ag5
ag7
ag8
ag9
ag71
ag11
ag12
ag13
ag14
ag17
ag18
ag19
ag20
ag21
ag26
ag29
ag30
ag79
ag31
asS'B1X4'
p83
(lp84
S'root://eoscms//eos/cms/store/group/phys_top/gkrintir/ForLumiComputation/2018/NormalFills/6847_And_6854_And_6868/ZeroBias1/crab_CMSSW_10_1_7_ZeroBias1_splitPerBXTrue/180817_121608/0000/minituples_supersep//pcc_Data_PixVtx_Event_90X_10__10.root'
p85
ag3
ag76
ag7
ag8
aS'root://eoscms//eos/cms/store/group/phys_top/gkrintir/ForLumiComputation/2018/NormalFills/6847_And_6854_And_6868/ZeroBias2/crab_CMSSW_10_1_7_ZeroBias2_splitPerBXTrue/180817_121630/0000/minituples_supersep//pcc_Data_PixVtx_Event_90X_20__20.root'
p86
ag9
ag40
ag10
ag11
ag12
ag13
ag14
ag15
ag16
ag17
ag18
ag19
ag22
ag77
ag24
ag25
ag26
ag60
ag29
ag30
ag78
ag31
asS'B1X1'
p87
(lp88
g52
ag4
ag5
ag7
ag8
ag37
ag9
ag10
ag11
ag12
ag13
ag14
ag16
ag17
ag18
ag19
ag22
ag77
ag26
ag29
ag30
ag79
ag62
ag31
ag49
asS'B2X5'
p89
(lp90
g85
aS'root://eoscms//eos/cms/store/group/phys_top/gkrintir/ForLumiComputation/2018/NormalFills/6847_And_6854_And_6868/ZeroBias1/crab_CMSSW_10_1_7_ZeroBias1_splitPerBXTrue/180817_121608/0000/minituples_supersep//pcc_Data_PixVtx_Event_90X_11__11.root'
p91
ag5
ag76
aS'root://eoscms//eos/cms/store/group/phys_top/gkrintir/ForLumiComputation/2018/NormalFills/6847_And_6854_And_6868/ZeroBias2/crab_CMSSW_10_1_7_ZeroBias2_splitPerBXTrue/180817_121630/0000/minituples_supersep//pcc_Data_PixVtx_Event_90X_13__13.root'
p92
ag86
ag9
ag40
ag11
ag12
aS'root://eoscms//eos/cms/store/group/phys_top/gkrintir/ForLumiComputation/2018/NormalFills/6847_And_6854_And_6868/ZeroBias4/crab_CMSSW_10_1_7_ZeroBias4_splitPerBXTrue/180817_121713/0000/minituples_supersep//pcc_Data_PixVtx_Event_90X_10__10.root'
p93
ag72
ag15
ag45
ag17
ag18
aS'root://eoscms//eos/cms/store/group/phys_top/gkrintir/ForLumiComputation/2018/NormalFills/6847_And_6854_And_6868/ZeroBias5/crab_CMSSW_10_1_7_ZeroBias5_splitPerBXTrue/180914_182538/0000/minituples_supersep//pcc_Data_PixVtx_Event_90X_5__5.root'
p94
ag22
ag54
ag23
ag24
ag25
aS'root://eoscms//eos/cms/store/group/phys_top/gkrintir/ForLumiComputation/2018/NormalFills/6847_And_6854_And_6868/ZeroBias7/crab_CMSSW_10_1_7_ZeroBias7_splitPerBXTrue/180817_121826/0000/minituples_supersep//pcc_Data_PixVtx_Event_90X_11__11.root'
p95
ag27
ag29
ag78
ag48
aS'root://eoscms//eos/cms/store/group/phys_top/gkrintir/ForLumiComputation/2018/NormalFills/6847_And_6854_And_6868/ZeroBias8/crab_CMSSW_10_1_7_ZeroBias8_splitPerBXTrue/180817_121848/0000/minituples_supersep//pcc_Data_PixVtx_Event_90X_1__1.root'
p96
ag31
ag73
ag56
asS'B2X1'
p97
(lp98
S'root://eoscms//eos/cms/store/group/phys_top/gkrintir/ForLumiComputation/2018/NormalFills/6847_And_6854_And_6868/ZeroBias1/crab_CMSSW_10_1_7_ZeroBias1_splitPerBXTrue/180817_121608/0000/minituples_supersep//pcc_Data_PixVtx_Event_90X_1__1.root'
p99
ag4
ag76
ag7
ag92
ag86
ag40
ag41
ag11
ag12
ag13
ag14
ag15
ag45
ag17
ag19
ag22
ag46
ag55
ag77
ag26
ag95
ag29
ag30
ag80
aS'root://eoscms//eos/cms/store/group/phys_top/gkrintir/ForLumiComputation/2018/NormalFills/6847_And_6854_And_6868/ZeroBias8/crab_CMSSW_10_1_7_ZeroBias8_splitPerBXTrue/180817_121848/0000/minituples_supersep//pcc_Data_PixVtx_Event_90X_5__5.root'
p100
ag73
ag49
asS'B2Y3'
p101
(lp102
g99
ag4
ag76
ag7
ag8
ag9
ag41
ag11
ag12
ag14
ag15
ag16
ag45
ag17
ag18
ag19
ag20
ag22
ag55
ag59
ag23
ag25
ag60
ag30
ag78
ag48
ag79
ag62
ag31
ag73
ag49
asS'B2Y2'
p103
(lp104
g85
ag99
ag52
ag5
ag6
ag7
ag8
ag9
ag40
ag41
ag71
ag11
ag12
ag13
ag14
ag45
ag18
ag19
ag20
ag22
ag55
ag59
ag23
ag26
aS'root://eoscms//eos/cms/store/group/phys_top/gkrintir/ForLumiComputation/2018/NormalFills/6847_And_6854_And_6868/ZeroBias6/crab_CMSSW_10_1_7_ZeroBias6_splitPerBXTrue/180818_163932/0000/minituples_supersep//pcc_Data_PixVtx_Event_90X_9__9.root'
p105
ag95
ag60
ag78
ag79
ag62
ag31
ag49
asS'B2Y1'
p106
(lp107
g99
ag3
ag6
ag76
ag92
ag9
ag11
ag12
ag13
ag15
ag16
ag45
ag17
ag18
ag19
ag20
ag22
ag46
ag55
ag23
ag25
ag26
ag60
ag78
ag67
ag79
ag62
ag31
asS'B2X3'
p108
(lp109
g85
ag91
ag3
ag5
ag7
ag92
ag35
ag86
ag9
ag40
ag41
ag71
ag11
ag13
ag14
ag15
ag16
ag45
ag17
ag18
ag20
ag94
aS'root://eoscms//eos/cms/store/group/phys_top/gkrintir/ForLumiComputation/2018/NormalFills/6847_And_6854_And_6868/ZeroBias5/crab_CMSSW_10_1_7_ZeroBias5_splitPerBXTrue/180914_182538/0000/minituples_supersep//pcc_Data_PixVtx_Event_90X_6__6.root'
p110
ag22
ag46
ag55
ag77
ag24
ag25
ag95
aS'root://eoscms//eos/cms/store/group/phys_top/gkrintir/ForLumiComputation/2018/NormalFills/6847_And_6854_And_6868/ZeroBias7/crab_CMSSW_10_1_7_ZeroBias7_splitPerBXTrue/180817_121826/0000/minituples_supersep//pcc_Data_PixVtx_Event_90X_12__12.root'
p111
ag27
ag29
ag30
ag48
ag80
ag56
ag49
asS'B2X4'
p112
(lp113
g85
ag5
ag76
ag92
ag35
ag86
ag9
ag11
ag12
ag13
ag72
ag14
ag16
aS'root://eoscms//eos/cms/store/group/phys_top/gkrintir/ForLumiComputation/2018/NormalFills/6847_And_6854_And_6868/ZeroBias4/crab_CMSSW_10_1_7_ZeroBias4_splitPerBXTrue/180817_121713/0000/minituples_supersep//pcc_Data_PixVtx_Event_90X_8__8.root'
p114
ag45
ag17
ag18
ag19
ag94
ag21
ag22
aS'root://eoscms//eos/cms/store/group/phys_top/gkrintir/ForLumiComputation/2018/NormalFills/6847_And_6854_And_6868/ZeroBias6/crab_CMSSW_10_1_7_ZeroBias6_splitPerBXTrue/180818_163932/0000/minituples_supersep//pcc_Data_PixVtx_Event_90X_15__15.root'
p115
ag55
ag25
ag95
ag27
ag30
ag78
ag79
ag96
ag73
ag56
asS'B2X2'
p116
(lp117
g4
ag5
ag76
ag7
ag92
ag86
ag40
ag41
ag11
ag12
ag13
ag14
ag45
ag17
ag18
ag20
ag94
ag110
ag22
ag46
ag55
ag77
ag24
ag95
ag29
ag30
ag31
ag56
asS'B2Y5'
p118
(lp119
g85
ag99
ag76
ag7
ag8
ag86
ag9
ag40
ag41
ag13
ag14
ag16
ag17
ag18
ag20
ag110
ag46
ag55
ag77
ag24
ag26
ag60
ag28
ag30
ag100
ag31
ag73
ag56
asS'B2Y4'
p120
(lp121
g99
ag5
ag7
ag8
ag37
ag9
ag41
ag10
ag11
ag13
ag14
ag16
ag17
ag18
ag19
ag20
ag21
ag46
ag55
ag25
ag26
ag60
ag27
ag78
ag62
ag73
as.